target datalayout = "e-m:e-p270:32:32-p271:32:32-p272:64:64-i64:64-i128:128-f80:128-n8:16:32:64-S128"
target triple = "x86_64-pc-linux-gnu"

%struct.strbuf = type { i64, i64, ptr }
%struct.config_source = type { ptr, %union.anon, i32, ptr, ptr, i32, i32, i32, i64, %struct.strbuf, %struct.strbuf, i8, ptr, ptr, ptr }
%union.anon = type { %struct.config_buf }
%struct.config_buf = type { ptr, i64, i64 }

@.str.8 = private unnamed_addr constant [1 x i8] zeroinitializer, align 1
@.str.40 = private unnamed_addr constant [39 x i8] c"unable to load config blob object '%s'\00", align 1
@.str.41 = private unnamed_addr constant [40 x i8] c"reference '%s' does not point to a blob\00", align 1
@git_gettext_enabled = external global i32, align 4

; Function Attrs: nounwind uwtable
define dso_local i32 @git_config_from_mem(ptr noundef %0, i32 noundef %1, ptr noundef %2, ptr noundef %3, i64 noundef %4, ptr noundef %5, i32 noundef %6, ptr noundef %7) #0 {
  %9 = alloca ptr, align 8
  %10 = alloca i32, align 4
  %11 = alloca ptr, align 8
  %12 = alloca ptr, align 8
  %13 = alloca i64, align 8
  %14 = alloca ptr, align 8
  %15 = alloca i32, align 4
  %16 = alloca ptr, align 8
  %17 = alloca %struct.config_source, align 8
  store ptr %0, ptr %9, align 8, !tbaa !30
  store i32 %1, ptr %10, align 4, !tbaa !13
  store ptr %2, ptr %11, align 8, !tbaa !4
  store ptr %3, ptr %12, align 8, !tbaa !4
  store i64 %4, ptr %13, align 8, !tbaa !19
  store ptr %5, ptr %14, align 8, !tbaa !30
  store i32 %6, ptr %15, align 4, !tbaa !13
  store ptr %7, ptr %16, align 8, !tbaa !48
  call void @llvm.lifetime.start.p0(i64 160, ptr %17) #13
  call void @llvm.memset.p0.i64(ptr align 8 %17, i8 0, i64 160, i1 false)
  %18 = load ptr, ptr %12, align 8, !tbaa !4
  %19 = getelementptr inbounds nuw %struct.config_source, ptr %17, i32 0, i32 1
  %20 = getelementptr inbounds nuw %struct.config_buf, ptr %19, i32 0, i32 0
  store ptr %18, ptr %20, align 8, !tbaa !9
  %21 = load i64, ptr %13, align 8, !tbaa !19
  %22 = getelementptr inbounds nuw %struct.config_source, ptr %17, i32 0, i32 1
  %23 = getelementptr inbounds nuw %struct.config_buf, ptr %22, i32 0, i32 1
  store i64 %21, ptr %23, align 8, !tbaa !9
  %24 = getelementptr inbounds nuw %struct.config_source, ptr %17, i32 0, i32 1
  %25 = getelementptr inbounds nuw %struct.config_buf, ptr %24, i32 0, i32 2
  store i64 0, ptr %25, align 8, !tbaa !9
  %26 = load i32, ptr %10, align 4, !tbaa !13
  %27 = getelementptr inbounds nuw %struct.config_source, ptr %17, i32 0, i32 2
  store i32 %26, ptr %27, align 8, !tbaa !52
  %28 = load ptr, ptr %11, align 8, !tbaa !4
  %29 = getelementptr inbounds nuw %struct.config_source, ptr %17, i32 0, i32 3
  store ptr %28, ptr %29, align 8, !tbaa !55
  %30 = getelementptr inbounds nuw %struct.config_source, ptr %17, i32 0, i32 4
  store ptr null, ptr %30, align 8, !tbaa !56
  %31 = getelementptr inbounds nuw %struct.config_source, ptr %17, i32 0, i32 5
  store i32 2, ptr %31, align 8, !tbaa !57
  %32 = getelementptr inbounds nuw %struct.config_source, ptr %17, i32 0, i32 12
  store ptr @config_buf_fgetc, ptr %32, align 8, !tbaa !58
  %33 = getelementptr inbounds nuw %struct.config_source, ptr %17, i32 0, i32 13
  store ptr @config_buf_ungetc, ptr %33, align 8, !tbaa !59
  %34 = getelementptr inbounds nuw %struct.config_source, ptr %17, i32 0, i32 14
  store ptr @config_buf_ftell, ptr %34, align 8, !tbaa !60
  %35 = load ptr, ptr %9, align 8, !tbaa !30
  %36 = load ptr, ptr %14, align 8, !tbaa !30
  %37 = load i32, ptr %15, align 4, !tbaa !13
  %38 = load ptr, ptr %16, align 8, !tbaa !48
  %39 = call i32 @do_config_from(ptr noundef %17, ptr noundef %35, ptr noundef %36, i32 noundef %37, ptr noundef %38)
  call void @llvm.lifetime.end.p0(i64 160, ptr %17) #13
  ret i32 %39
}

; Function Attrs: inlinehint nounwind uwtable
define internal i32 @const_error() #6 {
  ret i32 -1
}

; Function Attrs: inlinehint nounwind uwtable
define internal ptr @_(ptr noundef %0) #6 {
  %2 = alloca ptr, align 8
  %3 = alloca ptr, align 8
  store ptr %0, ptr %3, align 8, !tbaa !4
  %4 = load ptr, ptr %3, align 8, !tbaa !4
  %5 = load i8, ptr %4, align 1, !tbaa !9
  %6 = icmp ne i8 %5, 0
  br i1 %6, label %8, label %7

7:                                                ; preds = %1
  store ptr @.str.8, ptr %2, align 8
  br label %16

8:                                                ; preds = %1
  %9 = load i32, ptr @git_gettext_enabled, align 4, !tbaa !13
  %10 = icmp ne i32 %9, 0
  br i1 %10, label %13, label %11

11:                                               ; preds = %8
  %12 = load ptr, ptr %3, align 8, !tbaa !4
  store ptr %12, ptr %2, align 8
  br label %16

13:                                               ; preds = %8
  %14 = load ptr, ptr %3, align 8, !tbaa !4
  %15 = call ptr @dcgettext(ptr noundef null, ptr noundef %14, i32 noundef 5) #13
  store ptr %15, ptr %2, align 8
  br label %16

16:                                               ; preds = %13, %11, %7
  %17 = load ptr, ptr %2, align 8
  ret ptr %17
}

; Function Attrs: nounwind uwtable
define dso_local i32 @git_config_from_blob_oid(ptr noundef %0, ptr noundef %1, ptr noundef %2, ptr noundef %3, ptr noundef %4, i32 noundef %5) #0 {
  %7 = alloca i32, align 4
  %8 = alloca ptr, align 8
  %9 = alloca ptr, align 8
  %10 = alloca ptr, align 8
  %11 = alloca ptr, align 8
  %12 = alloca ptr, align 8
  %13 = alloca i32, align 4
  %14 = alloca i32, align 4
  %15 = alloca ptr, align 8
  %16 = alloca i64, align 8
  %17 = alloca i32, align 4
  %18 = alloca i32, align 4
  store ptr %0, ptr %8, align 8, !tbaa !30
  store ptr %1, ptr %9, align 8, !tbaa !4
  store ptr %2, ptr %10, align 8, !tbaa !65
  store ptr %3, ptr %11, align 8, !tbaa !67
  store ptr %4, ptr %12, align 8, !tbaa !30
  store i32 %5, ptr %13, align 4, !tbaa !13
  call void @llvm.lifetime.start.p0(i64 4, ptr %14) #13
  call void @llvm.lifetime.start.p0(i64 8, ptr %15) #13
  call void @llvm.lifetime.start.p0(i64 8, ptr %16) #13
  call void @llvm.lifetime.start.p0(i64 4, ptr %17) #13
  %19 = load ptr, ptr %10, align 8, !tbaa !65
  %20 = load ptr, ptr %11, align 8, !tbaa !67
  %21 = call ptr @repo_read_object_file(ptr noundef %19, ptr noundef %20, ptr noundef %14, ptr noundef %16)
  store ptr %21, ptr %15, align 8, !tbaa !4
  %22 = load ptr, ptr %15, align 8, !tbaa !4
  %23 = icmp ne ptr %22, null
  br i1 %23, label %29, label %24

24:                                               ; preds = %6
  %25 = call ptr @_(ptr noundef @.str.40)
  %26 = load ptr, ptr %9, align 8, !tbaa !4
  %27 = call i32 (ptr, ...) @error(ptr noundef %25, ptr noundef %26)
  %28 = call i32 @const_error()
  store i32 %28, ptr %7, align 4
  store i32 1, ptr %18, align 4
  br label %48

29:                                               ; preds = %6
  %30 = load i32, ptr %14, align 4, !tbaa !13
  %31 = icmp ne i32 %30, 3
  br i1 %31, label %32, label %38

32:                                               ; preds = %29
  %33 = load ptr, ptr %15, align 8, !tbaa !4
  call void @free(ptr noundef %33) #13
  %34 = call ptr @_(ptr noundef @.str.41)
  %35 = load ptr, ptr %9, align 8, !tbaa !4
  %36 = call i32 (ptr, ...) @error(ptr noundef %34, ptr noundef %35)
  %37 = call i32 @const_error()
  store i32 %37, ptr %7, align 4
  store i32 1, ptr %18, align 4
  br label %48

38:                                               ; preds = %29
  %39 = load ptr, ptr %8, align 8, !tbaa !30
  %40 = load ptr, ptr %9, align 8, !tbaa !4
  %41 = load ptr, ptr %15, align 8, !tbaa !4
  %42 = load i64, ptr %16, align 8, !tbaa !19
  %43 = load ptr, ptr %12, align 8, !tbaa !30
  %44 = load i32, ptr %13, align 4, !tbaa !13
  %45 = call i32 @git_config_from_mem(ptr noundef %39, i32 noundef 1, ptr noundef %40, ptr noundef %41, i64 noundef %42, ptr noundef %43, i32 noundef %44, ptr noundef null)
  store i32 %45, ptr %17, align 4, !tbaa !13
  %46 = load ptr, ptr %15, align 8, !tbaa !4
  call void @free(ptr noundef %46) #13
  %47 = load i32, ptr %17, align 4, !tbaa !13
  store i32 %47, ptr %7, align 4
  store i32 1, ptr %18, align 4
  br label %48

48:                                               ; preds = %38, %32, %24
  call void @llvm.lifetime.end.p0(i64 4, ptr %17) #13
  call void @llvm.lifetime.end.p0(i64 8, ptr %16) #13
  call void @llvm.lifetime.end.p0(i64 8, ptr %15) #13
  call void @llvm.lifetime.end.p0(i64 4, ptr %14) #13
  %49 = load i32, ptr %7, align 4
  ret i32 %49
}