; Function Attrs: nounwind uwtable
define dso_local range(i32 -1, 1) i32 @git_config_from_blob_oid(ptr noundef readonly captures(none) %0, ptr noundef %1, ptr noundef %2, ptr noundef %3, ptr noundef %4, i32 noundef %5) local_unnamed_addr #0 {
  %7 = alloca %struct.config_source, align 8
  %8 = alloca i32, align 4
  %9 = alloca i64, align 8
  call void @llvm.lifetime.start.p0(i64 4, ptr nonnull %8) #30
  call void @llvm.lifetime.start.p0(i64 8, ptr nonnull %9) #30
  %10 = call ptr @repo_read_object_file(ptr noundef %2, ptr noundef %3, ptr noundef nonnull %8, ptr noundef nonnull %9) #30
  %.not = icmp eq ptr %10, null
  br i1 %.not, label %11, label %16

11:                                               ; preds = %6
  %12 = load i32, ptr @git_gettext_enabled, align 4, !tbaa !14
  %.not4.i = icmp eq i32 %12, 0
  br i1 %.not4.i, label %_.exit, label %13

13:                                               ; preds = %11
  %14 = call ptr @dcgettext(ptr noundef null, ptr noundef nonnull @.str.40, i32 noundef 5) #30
  br label %_.exit

_.exit:                                           ; preds = %11, %13
  %.0.i = phi ptr [ %14, %13 ], [ @.str.40, %11 ]
  %15 = call i32 (ptr, ...) @error(ptr noundef %.0.i, ptr noundef %1) #30
  br label %34

16:                                               ; preds = %6
  %17 = load i32, ptr %8, align 4, !tbaa !14
  %.not14 = icmp eq i32 %17, 3
  br i1 %.not14, label %23, label %18

18:                                               ; preds = %16
  call void @free(ptr noundef nonnull %10) #30
  %19 = load i32, ptr @git_gettext_enabled, align 4, !tbaa !14
  %.not4.i15 = icmp eq i32 %19, 0
  br i1 %.not4.i15, label %_.exit17, label %20

20:                                               ; preds = %18
  %21 = call ptr @dcgettext(ptr noundef null, ptr noundef nonnull @.str.41, i32 noundef 5) #30
  br label %_.exit17

_.exit17:                                         ; preds = %18, %20
  %.0.i16 = phi ptr [ %21, %20 ], [ @.str.41, %18 ]
  %22 = call i32 (ptr, ...) @error(ptr noundef %.0.i16, ptr noundef %1) #30
  br label %34

23:                                               ; preds = %16
  %24 = load i64, ptr %9, align 8, !tbaa !16
  call void @llvm.lifetime.start.p0(i64 160, ptr nonnull %7) #30
  call void @llvm.memset.p0.i64(ptr noundef nonnull align 8 dereferenceable(160) %7, i8 0, i64 136, i1 false)
  %25 = getelementptr inbounds nuw i8, ptr %7, i64 8
  store ptr %10, ptr %25, align 8, !tbaa !4
  %26 = getelementptr inbounds nuw i8, ptr %7, i64 16
  store i64 %24, ptr %26, align 8, !tbaa !4
  %27 = getelementptr inbounds nuw i8, ptr %7, i64 32
  store i32 1, ptr %27, align 8, !tbaa !36
  %28 = getelementptr inbounds nuw i8, ptr %7, i64 40
  store ptr %1, ptr %28, align 8, !tbaa !39
  %29 = getelementptr inbounds nuw i8, ptr %7, i64 56
  store i32 2, ptr %29, align 8, !tbaa !41
  %30 = getelementptr inbounds nuw i8, ptr %7, i64 136
  store ptr @config_buf_fgetc, ptr %30, align 8, !tbaa !42
  %31 = getelementptr inbounds nuw i8, ptr %7, i64 144
  store ptr @config_buf_ungetc, ptr %31, align 8, !tbaa !43
  %32 = getelementptr inbounds nuw i8, ptr %7, i64 152
  store ptr @config_buf_ftell, ptr %32, align 8, !tbaa !44
  %33 = call fastcc range(i32 -1, 1) i32 @do_config_from(ptr noundef %7, ptr noundef readonly %0, ptr noundef %4, i32 noundef %5, ptr noundef null)
  call void @llvm.lifetime.end.p0(i64 160, ptr nonnull %7) #30
  call void @free(ptr noundef nonnull %10) #30
  br label %34

34:                                               ; preds = %23, %_.exit17, %_.exit
  %.0 = phi i32 [ -1, %_.exit17 ], [ %33, %23 ], [ -1, %_.exit ]
  call void @llvm.lifetime.end.p0(i64 8, ptr nonnull %9) #30
  call void @llvm.lifetime.end.p0(i64 4, ptr nonnull %8) #30
  ret i32 %.0
}